target datalayout = "e-m:e-p270:32:32-p271:32:32-p272:64:64-i64:64-i128:128-f80:128-n8:16:32:64-S128"
target triple = "x86_64-pc-linux-gnu"

%struct._lv_table_t = type { %struct._lv_obj_t, i32, i32, ptr, ptr, ptr, i32, i32 }
%struct._lv_obj_t = type { ptr, ptr, ptr, ptr, ptr, %struct.lv_area_t, i32, i16, i16 }
%struct.lv_area_t = type { i32, i32, i32, i32 }
%struct._lv_table_cell_t = type { i32, ptr, [1 x i8] }

; Function Attrs: inlinehint nounwind uwtable
define internal zeroext i1 @is_cell_empty(ptr noundef %0) #4 {
  %2 = alloca ptr, align 8
  store ptr %0, ptr %2, align 8, !tbaa !37
  %3 = load ptr, ptr %2, align 8, !tbaa !37
  %4 = icmp eq ptr %3, null
  ret i1 %4
}

; Function Attrs: nounwind uwtable
define void @lv_table_set_cell_user_data(ptr noundef %0, i16 noundef zeroext %1, i16 noundef zeroext %2, ptr noundef %3) #0 {
  %5 = alloca ptr, align 8
  %6 = alloca i16, align 2
  %7 = alloca i16, align 2
  %8 = alloca ptr, align 8
  %9 = alloca ptr, align 8
  %10 = alloca i32, align 4
  %11 = alloca i32, align 4
  store ptr %0, ptr %5, align 8, !tbaa !8
  store i16 %1, ptr %6, align 2, !tbaa !61
  store i16 %2, ptr %7, align 2, !tbaa !61
  store ptr %3, ptr %8, align 8, !tbaa !37
  br label %12

12:                                               ; preds = %4
  %13 = load ptr, ptr %5, align 8, !tbaa !8
  %14 = icmp ne ptr %13, null
  br i1 %14, label %19, label %15

15:                                               ; preds = %12
  br label %16

16:                                               ; preds = %15
  br label %17

17:                                               ; preds = %16
  br label %18

18:                                               ; preds = %17, %18
  br label %18

19:                                               ; preds = %12
  br label %20

20:                                               ; preds = %19
  call void @llvm.lifetime.start.p0(i64 8, ptr %9) #6
  %21 = load ptr, ptr %5, align 8, !tbaa !8
  store ptr %21, ptr %9, align 8, !tbaa !10
  %22 = load i16, ptr %7, align 2, !tbaa !61
  %23 = zext i16 %22 to i32
  %24 = load ptr, ptr %9, align 8, !tbaa !10
  %25 = getelementptr inbounds nuw %struct._lv_table_t, ptr %24, i32 0, i32 1
  %26 = load i32, ptr %25, align 8, !tbaa !12
  %27 = icmp uge i32 %23, %26
  br i1 %27, label %28, label %33

28:                                               ; preds = %20
  %29 = load ptr, ptr %5, align 8, !tbaa !8
  %30 = load i16, ptr %7, align 2, !tbaa !61
  %31 = zext i16 %30 to i32
  %32 = add nsw i32 %31, 1
  call void @lv_table_set_column_count(ptr noundef %29, i32 noundef %32)
  br label %33

33:                                               ; preds = %28, %20
  %34 = load i16, ptr %6, align 2, !tbaa !61
  %35 = zext i16 %34 to i32
  %36 = load ptr, ptr %9, align 8, !tbaa !10
  %37 = getelementptr inbounds nuw %struct._lv_table_t, ptr %36, i32 0, i32 2
  %38 = load i32, ptr %37, align 4, !tbaa !22
  %39 = icmp uge i32 %35, %38
  br i1 %39, label %40, label %45

40:                                               ; preds = %33
  %41 = load ptr, ptr %5, align 8, !tbaa !8
  %42 = load i16, ptr %6, align 2, !tbaa !61
  %43 = zext i16 %42 to i32
  %44 = add nsw i32 %43, 1
  call void @lv_table_set_row_count(ptr noundef %41, i32 noundef %44)
  br label %45

45:                                               ; preds = %40, %33
  call void @llvm.lifetime.start.p0(i64 4, ptr %10) #6
  %46 = load i16, ptr %6, align 2, !tbaa !61
  %47 = zext i16 %46 to i32
  %48 = load ptr, ptr %9, align 8, !tbaa !10
  %49 = getelementptr inbounds nuw %struct._lv_table_t, ptr %48, i32 0, i32 1
  %50 = load i32, ptr %49, align 8, !tbaa !12
  %51 = mul i32 %47, %50
  %52 = load i16, ptr %7, align 2, !tbaa !61
  %53 = zext i16 %52 to i32
  %54 = add i32 %51, %53
  store i32 %54, ptr %10, align 4, !tbaa !25
  %55 = load ptr, ptr %9, align 8, !tbaa !10
  %56 = getelementptr inbounds nuw %struct._lv_table_t, ptr %55, i32 0, i32 3
  %57 = load ptr, ptr %56, align 8, !tbaa !26
  %58 = load i32, ptr %10, align 4, !tbaa !25
  %59 = zext i32 %58 to i64
  %60 = getelementptr inbounds nuw ptr, ptr %57, i64 %59
  %61 = load ptr, ptr %60, align 8, !tbaa !27
  %62 = call zeroext i1 @is_cell_empty(ptr noundef %61)
  br i1 %62, label %63, label %124

63:                                               ; preds = %45
  %64 = call ptr @lv_malloc(i64 noundef 25)
  %65 = load ptr, ptr %9, align 8, !tbaa !10
  %66 = getelementptr inbounds nuw %struct._lv_table_t, ptr %65, i32 0, i32 3
  %67 = load ptr, ptr %66, align 8, !tbaa !26
  %68 = load i32, ptr %10, align 4, !tbaa !25
  %69 = zext i32 %68 to i64
  %70 = getelementptr inbounds nuw ptr, ptr %67, i64 %69
  store ptr %64, ptr %70, align 8, !tbaa !27
  br label %71

71:                                               ; preds = %63
  %72 = load ptr, ptr %9, align 8, !tbaa !10
  %73 = getelementptr inbounds nuw %struct._lv_table_t, ptr %72, i32 0, i32 3
  %74 = load ptr, ptr %73, align 8, !tbaa !26
  %75 = load i32, ptr %10, align 4, !tbaa !25
  %76 = zext i32 %75 to i64
  %77 = getelementptr inbounds nuw ptr, ptr %74, i64 %76
  %78 = load ptr, ptr %77, align 8, !tbaa !27
  %79 = icmp ne ptr %78, null
  br i1 %79, label %86, label %80

80:                                               ; preds = %71
  br label %81

81:                                               ; preds = %80
  br label %82

82:                                               ; preds = %81
  br label %83

83:                                               ; preds = %82
  br label %84

84:                                               ; preds = %85, %83
  br label %85

85:                                               ; preds = %84
  br label %84

86:                                               ; preds = %71
  br label %87

87:                                               ; preds = %86
  br label %88

88:                                               ; preds = %87
  %89 = load ptr, ptr %9, align 8, !tbaa !10
  %90 = getelementptr inbounds nuw %struct._lv_table_t, ptr %89, i32 0, i32 3
  %91 = load ptr, ptr %90, align 8, !tbaa !26
  %92 = load i32, ptr %10, align 4, !tbaa !25
  %93 = zext i32 %92 to i64
  %94 = getelementptr inbounds nuw ptr, ptr %91, i64 %93
  %95 = load ptr, ptr %94, align 8, !tbaa !27
  %96 = icmp eq ptr %95, null
  br i1 %96, label %97, label %98

97:                                               ; preds = %88
  store i32 1, ptr %11, align 4
  br label %155

98:                                               ; preds = %88
  %99 = load ptr, ptr %9, align 8, !tbaa !10
  %100 = getelementptr inbounds nuw %struct._lv_table_t, ptr %99, i32 0, i32 3
  %101 = load ptr, ptr %100, align 8, !tbaa !26
  %102 = load i32, ptr %10, align 4, !tbaa !25
  %103 = zext i32 %102 to i64
  %104 = getelementptr inbounds nuw ptr, ptr %101, i64 %103
  %105 = load ptr, ptr %104, align 8, !tbaa !27
  %106 = getelementptr inbounds nuw %struct._lv_table_cell_t, ptr %105, i32 0, i32 0
  store i32 0, ptr %106, align 8, !tbaa !47
  %107 = load ptr, ptr %9, align 8, !tbaa !10
  %108 = getelementptr inbounds nuw %struct._lv_table_t, ptr %107, i32 0, i32 3
  %109 = load ptr, ptr %108, align 8, !tbaa !26
  %110 = load i32, ptr %10, align 4, !tbaa !25
  %111 = zext i32 %110 to i64
  %112 = getelementptr inbounds nuw ptr, ptr %109, i64 %111
  %113 = load ptr, ptr %112, align 8, !tbaa !27
  %114 = getelementptr inbounds nuw %struct._lv_table_cell_t, ptr %113, i32 0, i32 1
  store ptr null, ptr %114, align 8, !tbaa !31
  %115 = load ptr, ptr %9, align 8, !tbaa !10
  %116 = getelementptr inbounds nuw %struct._lv_table_t, ptr %115, i32 0, i32 3
  %117 = load ptr, ptr %116, align 8, !tbaa !26
  %118 = load i32, ptr %10, align 4, !tbaa !25
  %119 = zext i32 %118 to i64
  %120 = getelementptr inbounds nuw ptr, ptr %117, i64 %119
  %121 = load ptr, ptr %120, align 8, !tbaa !27
  %122 = getelementptr inbounds nuw %struct._lv_table_cell_t, ptr %121, i32 0, i32 2
  %123 = getelementptr inbounds [1 x i8], ptr %122, i64 0, i64 0
  store i8 0, ptr %123, align 8, !tbaa !59
  br label %124

124:                                              ; preds = %98, %45
  %125 = load ptr, ptr %9, align 8, !tbaa !10
  %126 = getelementptr inbounds nuw %struct._lv_table_t, ptr %125, i32 0, i32 3
  %127 = load ptr, ptr %126, align 8, !tbaa !26
  %128 = load i32, ptr %10, align 4, !tbaa !25
  %129 = zext i32 %128 to i64
  %130 = getelementptr inbounds nuw ptr, ptr %127, i64 %129
  %131 = load ptr, ptr %130, align 8, !tbaa !27
  %132 = getelementptr inbounds nuw %struct._lv_table_cell_t, ptr %131, i32 0, i32 1
  %133 = load ptr, ptr %132, align 8, !tbaa !31
  %134 = icmp ne ptr %133, null
  br i1 %134, label %135, label %145

135:                                              ; preds = %124
  %136 = load ptr, ptr %9, align 8, !tbaa !10
  %137 = getelementptr inbounds nuw %struct._lv_table_t, ptr %136, i32 0, i32 3
  %138 = load ptr, ptr %137, align 8, !tbaa !26
  %139 = load i32, ptr %10, align 4, !tbaa !25
  %140 = zext i32 %139 to i64
  %141 = getelementptr inbounds nuw ptr, ptr %138, i64 %140
  %142 = load ptr, ptr %141, align 8, !tbaa !27
  %143 = getelementptr inbounds nuw %struct._lv_table_cell_t, ptr %142, i32 0, i32 1
  %144 = load ptr, ptr %143, align 8, !tbaa !31
  call void @lv_free(ptr noundef %144)
  br label %145

145:                                              ; preds = %135, %124
  %146 = load ptr, ptr %8, align 8, !tbaa !37
  %147 = load ptr, ptr %9, align 8, !tbaa !10
  %148 = getelementptr inbounds nuw %struct._lv_table_t, ptr %147, i32 0, i32 3
  %149 = load ptr, ptr %148, align 8, !tbaa !26
  %150 = load i32, ptr %10, align 4, !tbaa !25
  %151 = zext i32 %150 to i64
  %152 = getelementptr inbounds nuw ptr, ptr %149, i64 %151
  %153 = load ptr, ptr %152, align 8, !tbaa !27
  %154 = getelementptr inbounds nuw %struct._lv_table_cell_t, ptr %153, i32 0, i32 1
  store ptr %146, ptr %154, align 8, !tbaa !31
  store i32 0, ptr %11, align 4
  br label %155

155:                                              ; preds = %145, %97
  call void @llvm.lifetime.end.p0(i64 4, ptr %10) #6
  call void @llvm.lifetime.end.p0(i64 8, ptr %9) #6
  %156 = load i32, ptr %11, align 4
  switch i32 %156, label %158 [
    i32 0, label %157
    i32 1, label %157
  ]

157:                                              ; preds = %155, %155
  ret void

158:                                              ; preds = %155
  unreachable
}