; Function Attrs: nounwind uwtable
define void @lv_table_set_cell_user_data(ptr noundef %0, i16 noundef zeroext %1, i16 noundef zeroext %2, ptr noundef %3) local_unnamed_addr #0 {
  %.not = icmp eq ptr %0, null
  br i1 %.not, label %.preheader, label %5

.preheader:                                       ; preds = %4, %.preheader
  br label %.preheader

5:                                                ; preds = %4
  %6 = zext i16 %2 to i32
  %7 = getelementptr inbounds nuw i8, ptr %0, i64 64
  %8 = load i32, ptr %7, align 8, !tbaa !3
  %.not37 = icmp ugt i32 %8, %6
  br i1 %.not37, label %11, label %9

9:                                                ; preds = %5
  %10 = add nuw nsw i32 %6, 1
  tail call void @lv_table_set_column_count(ptr noundef nonnull %0, i32 noundef %10)
  br label %11

11:                                               ; preds = %9, %5
  %12 = zext i16 %1 to i32
  %13 = getelementptr inbounds nuw i8, ptr %0, i64 68
  %14 = load i32, ptr %13, align 4, !tbaa !18
  %.not38 = icmp ugt i32 %14, %12
  br i1 %.not38, label %17, label %15

15:                                               ; preds = %11
  %16 = add nuw nsw i32 %12, 1
  tail call void @lv_table_set_row_count(ptr noundef nonnull %0, i32 noundef %16)
  br label %17

17:                                               ; preds = %15, %11
  %18 = load i32, ptr %7, align 8, !tbaa !3
  %19 = mul i32 %18, %12
  %20 = add i32 %19, %6
  %21 = getelementptr inbounds nuw i8, ptr %0, i64 72
  %22 = load ptr, ptr %21, align 8, !tbaa !22
  %23 = zext i32 %20 to i64
  %24 = getelementptr inbounds nuw ptr, ptr %22, i64 %23
  %25 = load ptr, ptr %24, align 8, !tbaa !23
  %26 = icmp eq ptr %25, null
  br i1 %26, label %27, label %34

27:                                               ; preds = %17
  %28 = tail call ptr @lv_malloc(i64 noundef 25) #9
  %29 = load ptr, ptr %21, align 8, !tbaa !22
  %30 = getelementptr inbounds nuw ptr, ptr %29, i64 %23
  store ptr %28, ptr %30, align 8, !tbaa !23
  %.not39 = icmp eq ptr %28, null
  br i1 %.not39, label %.preheader41, label %31

.preheader41:                                     ; preds = %27, %.preheader41
  br label %.preheader41

31:                                               ; preds = %27
  store i32 0, ptr %28, align 8, !tbaa !41
  %32 = getelementptr inbounds nuw i8, ptr %28, i64 8
  store ptr null, ptr %32, align 8, !tbaa !27
  %33 = getelementptr inbounds nuw i8, ptr %28, i64 16
  store i8 0, ptr %33, align 8, !tbaa !46
  %.pre = load ptr, ptr %21, align 8, !tbaa !22
  %.phi.trans.insert = getelementptr inbounds nuw ptr, ptr %.pre, i64 %23
  %.pre42 = load ptr, ptr %.phi.trans.insert, align 8, !tbaa !23
  br label %34

34:                                               ; preds = %31, %17
  %35 = phi ptr [ %.pre42, %31 ], [ %25, %17 ]
  %36 = getelementptr inbounds nuw i8, ptr %35, i64 8
  %37 = load ptr, ptr %36, align 8, !tbaa !27
  %.not40 = icmp eq ptr %37, null
  br i1 %.not40, label %39, label %38

38:                                               ; preds = %34
  tail call void @lv_free(ptr noundef nonnull %37) #9
  %.pre43 = load ptr, ptr %21, align 8, !tbaa !22
  %.phi.trans.insert44 = getelementptr inbounds nuw ptr, ptr %.pre43, i64 %23
  %.pre45 = load ptr, ptr %.phi.trans.insert44, align 8, !tbaa !23
  br label %39

39:                                               ; preds = %38, %34
  %40 = phi ptr [ %.pre45, %38 ], [ %35, %34 ]
  %41 = getelementptr inbounds nuw i8, ptr %40, i64 8
  store ptr %3, ptr %41, align 8, !tbaa !27
  ret void
}